; Function Attrs: nounwind uwtable
define void @Fra_ClausRecordClause2(ptr noundef readonly captures(none) %0, ptr noundef readonly captures(none) %1, i32 noundef %2, i32 noundef %3) local_unnamed_addr #0 {
  %5 = getelementptr inbounds nuw i8, ptr %1, i64 23
  %6 = load i8, ptr %5, align 1, !tbaa !61
  %7 = icmp sgt i8 %6, 0
  br i1 %7, label %.lr.ph, label %._crit_edge

.lr.ph:                                           ; preds = %4
  %8 = getelementptr inbounds nuw i8, ptr %0, i64 112
  %9 = getelementptr inbounds nuw i8, ptr %0, i64 88
  %10 = getelementptr inbounds nuw i8, ptr %1, i64 24
  br label %11

11:                                               ; preds = %.lr.ph, %Vec_IntPush.exit
  %indvars.iv = phi i64 [ 0, %.lr.ph ], [ %indvars.iv.next, %Vec_IntPush.exit ]
  %12 = load ptr, ptr %8, align 8, !tbaa !86
  %13 = load ptr, ptr %9, align 8, !tbaa !3
  %14 = getelementptr inbounds nuw i8, ptr %13, i64 32
  %15 = load ptr, ptr %14, align 8, !tbaa !36
  %16 = getelementptr inbounds nuw [0 x i32], ptr %10, i64 0, i64 %indvars.iv
  %17 = load i32, ptr %16, align 4, !tbaa !38
  %18 = sext i32 %17 to i64
  %19 = getelementptr inbounds i32, ptr %15, i64 %18
  %20 = load i32, ptr %19, align 4, !tbaa !38
  %21 = shl nsw i32 %20, 1
  %22 = trunc nuw nsw i64 %indvars.iv to i32
  %23 = lshr i32 %2, %22
  %24 = and i32 %23, 1
  %25 = or disjoint i32 %21, %24
  %26 = getelementptr inbounds nuw i8, ptr %12, i64 4
  %27 = load i32, ptr %26, align 4, !tbaa !77
  %28 = load i32, ptr %12, align 8, !tbaa !87
  %29 = icmp eq i32 %27, %28
  br i1 %29, label %30, label %.Vec_IntGrow.exit10_crit_edge.i

.Vec_IntGrow.exit10_crit_edge.i:                  ; preds = %11
  %.phi.trans.insert.i = getelementptr inbounds nuw i8, ptr %12, i64 8
  %.pre.i = load ptr, ptr %.phi.trans.insert.i, align 8, !tbaa !79
  br label %Vec_IntPush.exit

30:                                               ; preds = %11
  %31 = icmp slt i32 %27, 16
  br i1 %31, label %32, label %40

32:                                               ; preds = %30
  %33 = getelementptr inbounds nuw i8, ptr %12, i64 8
  %34 = load ptr, ptr %33, align 8, !tbaa !79
  %.not9.i.i = icmp eq ptr %34, null
  br i1 %.not9.i.i, label %37, label %35

35:                                               ; preds = %32
  %36 = tail call dereferenceable_or_null(64) ptr @realloc(ptr noundef nonnull %34, i64 noundef 64) #25
  br label %Vec_IntGrow.exit.i

37:                                               ; preds = %32
  %38 = tail call noalias dereferenceable_or_null(64) ptr @malloc(i64 noundef 64) #24
  br label %Vec_IntGrow.exit.i

Vec_IntGrow.exit.i:                               ; preds = %37, %35
  %39 = phi ptr [ %36, %35 ], [ %38, %37 ]
  store ptr %39, ptr %33, align 8, !tbaa !79
  store i32 16, ptr %12, align 8, !tbaa !87
  br label %Vec_IntPush.exit

40:                                               ; preds = %30
  %41 = shl nuw nsw i32 %27, 1
  %42 = getelementptr inbounds nuw i8, ptr %12, i64 8
  %43 = load ptr, ptr %42, align 8, !tbaa !79
  %.not9.i9.i = icmp eq ptr %43, null
  %44 = zext nneg i32 %41 to i64
  %45 = shl nuw nsw i64 %44, 2
  br i1 %.not9.i9.i, label %48, label %46

46:                                               ; preds = %40
  %47 = tail call ptr @realloc(ptr noundef nonnull %43, i64 noundef %45) #25
  br label %50

48:                                               ; preds = %40
  %49 = tail call noalias ptr @malloc(i64 noundef %45) #24
  br label %50

50:                                               ; preds = %48, %46
  %51 = phi ptr [ %47, %46 ], [ %49, %48 ]
  store ptr %51, ptr %42, align 8, !tbaa !79
  store i32 %41, ptr %12, align 8, !tbaa !87
  br label %Vec_IntPush.exit

Vec_IntPush.exit:                                 ; preds = %.Vec_IntGrow.exit10_crit_edge.i, %Vec_IntGrow.exit.i, %50
  %52 = phi ptr [ %.pre.i, %.Vec_IntGrow.exit10_crit_edge.i ], [ %51, %50 ], [ %39, %Vec_IntGrow.exit.i ]
  %53 = load i32, ptr %26, align 4, !tbaa !77
  %54 = add nsw i32 %53, 1
  store i32 %54, ptr %26, align 4, !tbaa !77
  %55 = sext i32 %53 to i64
  %56 = getelementptr inbounds i32, ptr %52, i64 %55
  store i32 %25, ptr %56, align 4, !tbaa !38
  %indvars.iv.next = add nuw nsw i64 %indvars.iv, 1
  %57 = load i8, ptr %5, align 1, !tbaa !61
  %58 = sext i8 %57 to i64
  %59 = icmp slt i64 %indvars.iv.next, %58
  br i1 %59, label %11, label %._crit_edge, !llvm.loop !90

._crit_edge:                                      ; preds = %Vec_IntPush.exit, %4
  %60 = getelementptr inbounds nuw i8, ptr %0, i64 120
  %61 = load ptr, ptr %60, align 8, !tbaa !89
  %62 = getelementptr inbounds nuw i8, ptr %0, i64 112
  %63 = load ptr, ptr %62, align 8, !tbaa !86
  %64 = getelementptr i8, ptr %63, i64 4
  %.val = load i32, ptr %64, align 4, !tbaa !77
  %65 = getelementptr inbounds nuw i8, ptr %61, i64 4
  %66 = load i32, ptr %65, align 4, !tbaa !77
  %67 = load i32, ptr %61, align 8, !tbaa !87
  %68 = icmp eq i32 %66, %67
  br i1 %68, label %69, label %.Vec_IntGrow.exit10_crit_edge.i12

.Vec_IntGrow.exit10_crit_edge.i12:                ; preds = %._crit_edge
  %.phi.trans.insert.i13 = getelementptr inbounds nuw i8, ptr %61, i64 8
  %.pre.i14 = load ptr, ptr %.phi.trans.insert.i13, align 8, !tbaa !79
  br label %Vec_IntPush.exit18

69:                                               ; preds = %._crit_edge
  %70 = icmp slt i32 %66, 16
  br i1 %70, label %71, label %79

71:                                               ; preds = %69
  %72 = getelementptr inbounds nuw i8, ptr %61, i64 8
  %73 = load ptr, ptr %72, align 8, !tbaa !79
  %.not9.i.i16 = icmp eq ptr %73, null
  br i1 %.not9.i.i16, label %76, label %74

74:                                               ; preds = %71
  %75 = tail call dereferenceable_or_null(64) ptr @realloc(ptr noundef nonnull %73, i64 noundef 64) #25
  br label %Vec_IntGrow.exit.i17

76:                                               ; preds = %71
  %77 = tail call noalias dereferenceable_or_null(64) ptr @malloc(i64 noundef 64) #24
  br label %Vec_IntGrow.exit.i17

Vec_IntGrow.exit.i17:                             ; preds = %76, %74
  %78 = phi ptr [ %75, %74 ], [ %77, %76 ]
  store ptr %78, ptr %72, align 8, !tbaa !79
  store i32 16, ptr %61, align 8, !tbaa !87
  br label %Vec_IntPush.exit18

79:                                               ; preds = %69
  %80 = shl nuw nsw i32 %66, 1
  %81 = getelementptr inbounds nuw i8, ptr %61, i64 8
  %82 = load ptr, ptr %81, align 8, !tbaa !79
  %.not9.i9.i15 = icmp eq ptr %82, null
  %83 = zext nneg i32 %80 to i64
  %84 = shl nuw nsw i64 %83, 2
  br i1 %.not9.i9.i15, label %87, label %85

85:                                               ; preds = %79
  %86 = tail call ptr @realloc(ptr noundef nonnull %82, i64 noundef %84) #25
  br label %89

87:                                               ; preds = %79
  %88 = tail call noalias ptr @malloc(i64 noundef %84) #24
  br label %89

89:                                               ; preds = %87, %85
  %90 = phi ptr [ %86, %85 ], [ %88, %87 ]
  store ptr %90, ptr %81, align 8, !tbaa !79
  store i32 %80, ptr %61, align 8, !tbaa !87
  br label %Vec_IntPush.exit18

Vec_IntPush.exit18:                               ; preds = %.Vec_IntGrow.exit10_crit_edge.i12, %Vec_IntGrow.exit.i17, %89
  %91 = phi ptr [ %.pre.i14, %.Vec_IntGrow.exit10_crit_edge.i12 ], [ %90, %89 ], [ %78, %Vec_IntGrow.exit.i17 ]
  %92 = load i32, ptr %65, align 4, !tbaa !77
  %93 = add nsw i32 %92, 1
  store i32 %93, ptr %65, align 4, !tbaa !77
  %94 = sext i32 %92 to i64
  %95 = getelementptr inbounds i32, ptr %91, i64 %94
  store i32 %.val, ptr %95, align 4, !tbaa !38
  %96 = getelementptr inbounds nuw i8, ptr %0, i64 128
  %97 = load ptr, ptr %96, align 8, !tbaa !76
  %98 = getelementptr inbounds nuw i8, ptr %97, i64 4
  %99 = load i32, ptr %98, align 4, !tbaa !77
  %100 = load i32, ptr %97, align 8, !tbaa !87
  %101 = icmp eq i32 %99, %100
  br i1 %101, label %102, label %.Vec_IntGrow.exit10_crit_edge.i19

.Vec_IntGrow.exit10_crit_edge.i19:                ; preds = %Vec_IntPush.exit18
  %.phi.trans.insert.i20 = getelementptr inbounds nuw i8, ptr %97, i64 8
  %.pre.i21 = load ptr, ptr %.phi.trans.insert.i20, align 8, !tbaa !79
  br label %Vec_IntPush.exit25

102:                                              ; preds = %Vec_IntPush.exit18
  %103 = icmp slt i32 %99, 16
  br i1 %103, label %104, label %112

104:                                              ; preds = %102
  %105 = getelementptr inbounds nuw i8, ptr %97, i64 8
  %106 = load ptr, ptr %105, align 8, !tbaa !79
  %.not9.i.i23 = icmp eq ptr %106, null
  br i1 %.not9.i.i23, label %109, label %107

107:                                              ; preds = %104
  %108 = tail call dereferenceable_or_null(64) ptr @realloc(ptr noundef nonnull %106, i64 noundef 64) #25
  br label %Vec_IntGrow.exit.i24

109:                                              ; preds = %104
  %110 = tail call noalias dereferenceable_or_null(64) ptr @malloc(i64 noundef 64) #24
  br label %Vec_IntGrow.exit.i24

Vec_IntGrow.exit.i24:                             ; preds = %109, %107
  %111 = phi ptr [ %108, %107 ], [ %110, %109 ]
  store ptr %111, ptr %105, align 8, !tbaa !79
  store i32 16, ptr %97, align 8, !tbaa !87
  br label %Vec_IntPush.exit25

112:                                              ; preds = %102
  %113 = shl nuw nsw i32 %99, 1
  %114 = getelementptr inbounds nuw i8, ptr %97, i64 8
  %115 = load ptr, ptr %114, align 8, !tbaa !79
  %.not9.i9.i22 = icmp eq ptr %115, null
  %116 = zext nneg i32 %113 to i64
  %117 = shl nuw nsw i64 %116, 2
  br i1 %.not9.i9.i22, label %120, label %118

118:                                              ; preds = %112
  %119 = tail call ptr @realloc(ptr noundef nonnull %115, i64 noundef %117) #25
  br label %122

120:                                              ; preds = %112
  %121 = tail call noalias ptr @malloc(i64 noundef %117) #24
  br label %122

122:                                              ; preds = %120, %118
  %123 = phi ptr [ %119, %118 ], [ %121, %120 ]
  store ptr %123, ptr %114, align 8, !tbaa !79
  store i32 %113, ptr %97, align 8, !tbaa !87
  br label %Vec_IntPush.exit25

Vec_IntPush.exit25:                               ; preds = %.Vec_IntGrow.exit10_crit_edge.i19, %Vec_IntGrow.exit.i24, %122
  %124 = phi ptr [ %.pre.i21, %.Vec_IntGrow.exit10_crit_edge.i19 ], [ %123, %122 ], [ %111, %Vec_IntGrow.exit.i24 ]
  %125 = load i32, ptr %98, align 4, !tbaa !77
  %126 = add nsw i32 %125, 1
  store i32 %126, ptr %98, align 4, !tbaa !77
  %127 = sext i32 %125 to i64
  %128 = getelementptr inbounds i32, ptr %124, i64 %127
  store i32 %3, ptr %128, align 4, !tbaa !38
  ret void
}